target datalayout = "e-m:e-p270:32:32-p271:32:32-p272:64:64-i64:64-i128:128-f80:128-n8:16:32:64-S128"
target triple = "x86_64-pc-linux-gnu"

%struct.pmix_list_t = type { %struct.pmix_object_t, %struct.pmix_list_item_t, i64 }
%struct.pmix_object_t = type { %union.pthread_mutex_t, ptr, i32, %struct.pmix_tma }
%union.pthread_mutex_t = type { %struct.__pthread_mutex_s }
%struct.__pthread_mutex_s = type { i32, i32, i32, i32, i32, i16, i16, %struct.__pthread_internal_list }
%struct.__pthread_internal_list = type { ptr, ptr }
%struct.pmix_tma = type { ptr, ptr, ptr, ptr, ptr, ptr, ptr, ptr }
%struct.pmix_list_item_t = type { %struct.pmix_object_t, ptr, ptr, i32 }
%struct.timeval = type { i64, i64 }
%struct.pmix_ptl_base_t = type { i8, i8, %struct.pmix_list_t, %struct.pmix_list_t, %struct.pmix_listener_t, ptr, i32, i64, ptr, ptr, ptr, ptr, ptr, ptr, ptr, ptr, ptr, ptr, ptr, ptr, i8, i8, i8, i8, i8, i8, i8, i8, i8, i8, i8, i8, i8, i8, ptr, ptr, i32, i8, i32, i8, i32, i32, i32, i32 }
%struct.pmix_listener_t = type { %struct.pmix_list_item_t, %struct.event, i8, i16, i32, ptr, ptr, i32, i8, i32, i8, i32, ptr }
%struct.event = type { %struct.event_callback, %union.anon.0, i32, ptr, %union.anon.2, i16, i16, %struct.timeval }
%struct.event_callback = type { %struct.anon, i16, i8, i8, %union.anon, ptr }
%struct.anon = type { ptr, ptr }
%union.anon = type { ptr }
%union.anon.0 = type { %struct.anon.1 }
%struct.anon.1 = type { ptr, ptr }
%union.anon.2 = type { %struct.anon.3 }
%struct.anon.3 = type { %struct.anon.4, %struct.timeval }
%struct.anon.4 = type { ptr, ptr }
%struct.pmix_peer_t = type { %struct.pmix_object_t, ptr, ptr, %struct.pmix_proc_type_t, i16, i32, i32, i32, i8, %struct.event, i8, %struct.event, i8, %struct.pmix_list_t, ptr, ptr, i32, %struct.pmix_epilog_t }
%struct.pmix_proc_type_t = type { i32, i8, i8, i8, i8 }
%struct.pmix_epilog_t = type { i32, i32, %struct.pmix_list_t, %struct.pmix_list_t, %struct.pmix_list_t }

@pmix_ptl_base = external global %struct.pmix_ptl_base_t, align 8

; Function Attrs: nounwind uwtable
define i32 @pmix_ptl_base_set_timeout(ptr noundef %0, ptr noundef %1, ptr noundef %2, ptr noundef %3) #0 {
  %5 = alloca ptr, align 8
  %6 = alloca ptr, align 8
  %7 = alloca ptr, align 8
  %8 = alloca ptr, align 8
  %9 = alloca %struct.timeval, align 8
  store ptr %0, ptr %5, align 8, !tbaa !3
  store ptr %1, ptr %6, align 8, !tbaa !175
  store ptr %2, ptr %7, align 8, !tbaa !88
  store ptr %3, ptr %8, align 8, !tbaa !177
  call void @llvm.lifetime.start.p0(i64 16, ptr %9) #13
  %10 = load ptr, ptr %5, align 8, !tbaa !3
  %11 = getelementptr inbounds nuw %struct.pmix_peer_t, ptr %10, i32 0, i32 7
  %12 = load i32, ptr %11, align 4, !tbaa !162
  %13 = load ptr, ptr %6, align 8, !tbaa !175
  %14 = load ptr, ptr %7, align 8, !tbaa !88
  %15 = call i32 @getsockopt(i32 noundef %12, i32 noundef 1, i32 noundef 20, ptr noundef %13, ptr noundef %14) #13
  %16 = icmp ne i32 0, %15
  br i1 %16, label %17, label %19

17:                                               ; preds = %4
  %18 = load ptr, ptr %8, align 8, !tbaa !177
  store i8 0, ptr %18, align 1, !tbaa !89
  br label %32

19:                                               ; preds = %4
  %20 = load i32, ptr getelementptr inbounds nuw (%struct.pmix_ptl_base_t, ptr @pmix_ptl_base, i32 0, i32 42), align 8, !tbaa !179
  %21 = sext i32 %20 to i64
  %22 = getelementptr inbounds nuw %struct.timeval, ptr %9, i32 0, i32 0
  store i64 %21, ptr %22, align 8, !tbaa !101
  %23 = getelementptr inbounds nuw %struct.timeval, ptr %9, i32 0, i32 1
  store i64 0, ptr %23, align 8, !tbaa !102
  %24 = load ptr, ptr %5, align 8, !tbaa !3
  %25 = getelementptr inbounds nuw %struct.pmix_peer_t, ptr %24, i32 0, i32 7
  %26 = load i32, ptr %25, align 4, !tbaa !162
  %27 = call i32 @setsockopt(i32 noundef %26, i32 noundef 1, i32 noundef 20, ptr noundef %9, i32 noundef 16) #13
  %28 = icmp ne i32 0, %27
  br i1 %28, label %29, label %31

29:                                               ; preds = %19
  %30 = load ptr, ptr %8, align 8, !tbaa !177
  store i8 0, ptr %30, align 1, !tbaa !89
  br label %31

31:                                               ; preds = %29, %19
  br label %32

32:                                               ; preds = %31, %17
  call void @llvm.lifetime.end.p0(i64 16, ptr %9) #13
  ret i32 0
}