; Function Attrs: nounwind uwtable
define noundef i32 @pmix_ptl_base_set_timeout(ptr noundef readonly captures(none) %0, ptr noundef %1, ptr noundef %2, ptr noundef writeonly captures(none) %3) local_unnamed_addr #0 {
  %5 = alloca %struct.timeval, align 8
  call void @llvm.lifetime.start.p0(i64 16, ptr nonnull %5) #20
  %6 = getelementptr inbounds nuw i8, ptr %0, i64 156
  %7 = load i32, ptr %6, align 4, !tbaa !138
  %8 = tail call i32 @getsockopt(i32 noundef %7, i32 noundef 1, i32 noundef 20, ptr noundef %1, ptr noundef %2) #20
  %.not = icmp eq i32 %8, 0
  br i1 %.not, label %9, label %.sink.split

9:                                                ; preds = %4
  %10 = load i32, ptr getelementptr inbounds nuw (i8, ptr @pmix_ptl_base, i64 1056), align 8, !tbaa !139
  %11 = sext i32 %10 to i64
  store i64 %11, ptr %5, align 8, !tbaa !88
  %12 = getelementptr inbounds nuw i8, ptr %5, i64 8
  store i64 0, ptr %12, align 8, !tbaa !89
  %13 = load i32, ptr %6, align 4, !tbaa !138
  %14 = call i32 @setsockopt(i32 noundef %13, i32 noundef 1, i32 noundef 20, ptr noundef nonnull %5, i32 noundef 16) #20
  %.not6 = icmp eq i32 %14, 0
  br i1 %.not6, label %15, label %.sink.split

.sink.split:                                      ; preds = %9, %4
  store i8 0, ptr %3, align 1, !tbaa !152
  br label %15

15:                                               ; preds = %.sink.split, %9
  call void @llvm.lifetime.end.p0(i64 16, ptr nonnull %5) #20
  ret i32 0
}